target datalayout = "e-m:e-p270:32:32-p271:32:32-p272:64:64-i64:64-i128:128-f80:128-n8:16:32:64-S128"
target triple = "x86_64-pc-linux-gnu"

%struct.H5O_link_t = type { i32, i8, i64, i32, ptr, %union.anon }
%union.anon = type { %struct.H5O_link_ud_t }
%struct.H5O_link_ud_t = type { ptr, i64 }
%struct.H5G_link_table_t = type { i64, ptr }

@H5G_init_g = external global i8, align 1
@H5_libterm_g = external global i8, align 1
@.str = private unnamed_addr constant [101 x i8] c"generated/home/dtcxzyw/WorkSpace/Projects/compilers/llvm-opt-benchmark/bench/hdf5/hdf5/src/H5Glink.c\00", align 1
@H5E_SYM_g = external global i64, align 8
@__func__.H5G__link_release_table = private unnamed_addr constant [24 x i8] c"H5G__link_release_table\00", align 1
@H5E_CANTFREE_g = external global i64, align 8
@.str.17 = private unnamed_addr constant [31 x i8] c"unable to release link message\00", align 1

; Function Attrs: nounwind uwtable
define i32 @H5G__link_release_table(ptr noundef %0) #0 {
  %2 = alloca ptr, align 8
  %3 = alloca i64, align 8
  %4 = alloca i32, align 4
  %5 = alloca i8, align 1
  store ptr %0, ptr %2, align 8, !tbaa !10
  call void @llvm.lifetime.start.p0(i64 8, ptr %3) #6
  call void @llvm.lifetime.start.p0(i64 4, ptr %4) #6
  store i32 0, ptr %4, align 4, !tbaa !11
  call void @llvm.lifetime.start.p0(i64 1, ptr %5) #6
  store i8 0, ptr %5, align 1, !tbaa !13
  %6 = load i8, ptr @H5G_init_g, align 1, !tbaa !13, !range !15, !noundef !16
  %7 = trunc i8 %6 to i1
  br i1 %7, label %12, label %8

8:                                                ; preds = %1
  %9 = load i8, ptr @H5_libterm_g, align 1, !tbaa !13, !range !15, !noundef !16
  %10 = trunc i8 %9 to i1
  %11 = xor i1 %10, true
  br label %12

12:                                               ; preds = %8, %1
  %13 = phi i1 [ true, %1 ], [ %11, %8 ]
  %14 = xor i1 %13, true
  %15 = xor i1 %14, true
  %16 = zext i1 %15 to i32
  %17 = sext i32 %16 to i64
  %18 = call i64 @llvm.expect.i64(i64 %17, i64 1)
  %19 = icmp ne i64 %18, 0
  br i1 %19, label %20, label %71

20:                                               ; preds = %12
  %21 = load ptr, ptr %2, align 8, !tbaa !10
  %22 = getelementptr inbounds nuw %struct.H5G_link_table_t, ptr %21, i32 0, i32 0
  %23 = load i64, ptr %22, align 8, !tbaa !64
  %24 = icmp ugt i64 %23, 0
  br i1 %24, label %25, label %68

25:                                               ; preds = %20
  store i64 0, ptr %3, align 8, !tbaa !17
  br label %26

26:                                               ; preds = %60, %25
  %27 = load i64, ptr %3, align 8, !tbaa !17
  %28 = load ptr, ptr %2, align 8, !tbaa !10
  %29 = getelementptr inbounds nuw %struct.H5G_link_table_t, ptr %28, i32 0, i32 0
  %30 = load i64, ptr %29, align 8, !tbaa !64
  %31 = icmp ult i64 %27, %30
  br i1 %31, label %32, label %63

32:                                               ; preds = %26
  %33 = load ptr, ptr %2, align 8, !tbaa !10
  %34 = getelementptr inbounds nuw %struct.H5G_link_table_t, ptr %33, i32 0, i32 1
  %35 = load ptr, ptr %34, align 8, !tbaa !66
  %36 = load i64, ptr %3, align 8, !tbaa !17
  %37 = getelementptr inbounds nuw %struct.H5O_link_t, ptr %35, i64 %36
  %38 = call i32 @H5O_msg_reset(i32 noundef 6, ptr noundef %37)
  %39 = icmp slt i32 %38, 0
  br i1 %39, label %40, label %59

40:                                               ; preds = %32
  br label %41

41:                                               ; preds = %40
  br label %42

42:                                               ; preds = %41
  br label %43

43:                                               ; preds = %42
  %44 = load i64, ptr @H5E_SYM_g, align 8, !tbaa !17
  %45 = load i64, ptr @H5E_CANTFREE_g, align 8, !tbaa !17
  %46 = call i32 (ptr, ptr, i32, i64, i64, ptr, ...) @H5E_printf_stack(ptr noundef @.str, ptr noundef @__func__.H5G__link_release_table, i32 noundef 560, i64 noundef %44, i64 noundef %45, ptr noundef @.str.17)
  br label %47

47:                                               ; preds = %43
  br label %48

48:                                               ; preds = %47
  store i8 1, ptr %5, align 1, !tbaa !13
  %49 = load i8, ptr %5, align 1, !tbaa !13, !range !15, !noundef !16
  %50 = trunc i8 %49 to i1
  %51 = zext i1 %50 to i8
  store i8 %51, ptr %5, align 1, !tbaa !13
  br label %52

52:                                               ; preds = %48
  br label %53

53:                                               ; preds = %52
  br label %54

54:                                               ; preds = %53
  store i32 -1, ptr %4, align 4, !tbaa !11
  br label %70

55:                                               ; No predecessors!
  br label %56

56:                                               ; preds = %55
  br label %57

57:                                               ; preds = %56
  br label %58

58:                                               ; preds = %57
  br label %59

59:                                               ; preds = %58, %32
  br label %60

60:                                               ; preds = %59
  %61 = load i64, ptr %3, align 8, !tbaa !17
  %62 = add i64 %61, 1
  store i64 %62, ptr %3, align 8, !tbaa !17
  br label %26, !llvm.loop !71

63:                                               ; preds = %26
  %64 = load ptr, ptr %2, align 8, !tbaa !10
  %65 = getelementptr inbounds nuw %struct.H5G_link_table_t, ptr %64, i32 0, i32 1
  %66 = load ptr, ptr %65, align 8, !tbaa !66
  %67 = call ptr @H5MM_xfree(ptr noundef %66)
  br label %69

68:                                               ; preds = %20
  br label %69

69:                                               ; preds = %68, %63
  br label %70

70:                                               ; preds = %69, %54
  br label %71

71:                                               ; preds = %70, %12
  %72 = load i32, ptr %4, align 4, !tbaa !11
  call void @llvm.lifetime.end.p0(i64 1, ptr %5) #6
  call void @llvm.lifetime.end.p0(i64 4, ptr %4) #6
  call void @llvm.lifetime.end.p0(i64 8, ptr %3) #6
  ret i32 %72
}