; Function Attrs: nounwind uwtable
define range(i32 -1, 1) i32 @H5G__link_release_table(ptr noundef readonly captures(none) %0) local_unnamed_addr #0 {
  %2 = load i8, ptr @H5G_init_g, align 1, !tbaa !3, !range !7, !noundef !8
  %3 = trunc nuw i8 %2 to i1
  %4 = load i8, ptr @H5_libterm_g, align 1, !range !7
  %5 = trunc nuw i8 %4 to i1
  %6 = xor i1 %5, true
  %7 = select i1 %3, i1 true, i1 %6
  br i1 %7, label %8, label %27, !prof !9

8:                                                ; preds = %1
  %9 = load i64, ptr %0, align 8, !tbaa !50
  %.not = icmp eq i64 %9, 0
  br i1 %.not, label %27, label %.lr.ph

.lr.ph:                                           ; preds = %8
  %10 = getelementptr inbounds nuw i8, ptr %0, i64 8
  br label %15

11:                                               ; preds = %15
  %12 = add nuw i64 %.089, 1
  %13 = load i64, ptr %0, align 8, !tbaa !50
  %14 = icmp ult i64 %12, %13
  br i1 %14, label %15, label %._crit_edge, !llvm.loop !56

15:                                               ; preds = %.lr.ph, %11
  %.089 = phi i64 [ 0, %.lr.ph ], [ %12, %11 ]
  %16 = load ptr, ptr %10, align 8, !tbaa !53
  %17 = getelementptr inbounds nuw %struct.H5O_link_t, ptr %16, i64 %.089
  %18 = tail call i32 @H5O_msg_reset(i32 noundef 6, ptr noundef %17) #9
  %19 = icmp slt i32 %18, 0
  br i1 %19, label %20, label %11

20:                                               ; preds = %15
  %21 = load i64, ptr @H5E_SYM_g, align 8, !tbaa !10
  %22 = load i64, ptr @H5E_CANTFREE_g, align 8, !tbaa !10
  %23 = tail call i32 (ptr, ptr, i32, i64, i64, ptr, ...) @H5E_printf_stack(ptr noundef nonnull @.str, ptr noundef nonnull @__func__.H5G__link_release_table, i32 noundef 560, i64 noundef %21, i64 noundef %22, ptr noundef nonnull @.str.17) #9
  br label %27

._crit_edge:                                      ; preds = %11
  %24 = getelementptr inbounds nuw i8, ptr %0, i64 8
  %25 = load ptr, ptr %24, align 8, !tbaa !53
  %26 = tail call ptr @H5MM_xfree(ptr noundef %25) #9
  br label %27

27:                                               ; preds = %20, %8, %._crit_edge, %1
  %.0 = phi i32 [ -1, %20 ], [ 0, %._crit_edge ], [ 0, %8 ], [ 0, %1 ]
  ret i32 %.0
}